
test_Oz.o:     file format elf64-littleaarch64


Disassembly of section .text.startup:

0000000000000000 <main>:
   0:	a9bd7bfd 	stp	x29, x30, [sp, #-48]!
   4:	52800600 	mov	w0, #0x30                  	// #48
   8:	d29159c3 	mov	x3, #0x8ace                	// #35534
   c:	910003fd 	mov	x29, sp
  10:	390063e0 	strb	w0, [sp, #24]
  14:	f2a048c3 	movk	x3, #0x246, lsl #16
  18:	52800f00 	mov	w0, #0x78                  	// #120
  1c:	390067e0 	strb	w0, [sp, #25]
  20:	f2df75a3 	movk	x3, #0xfbad, lsl #32
  24:	52800140 	mov	w0, #0xa                   	// #10
  28:	910063e1 	add	x1, sp, #0x18
  2c:	3900afff 	strb	wzr, [sp, #43]
  30:	f2fbd943 	movk	x3, #0xdeca, lsl #48
  34:	3900abe0 	strb	w0, [sp, #42]
  38:	52800220 	mov	w0, #0x11                  	// #17
  3c:	12000c62 	and	w2, w3, #0xf
  40:	39005fe2 	strb	w2, [sp, #23]
  44:	d344fc63 	lsr	x3, x3, #4
  48:	39405fe2 	ldrb	w2, [sp, #23]
  4c:	12001c42 	and	w2, w2, #0xff
  50:	7100245f 	cmp	w2, #0x9
  54:	39405fe2 	ldrb	w2, [sp, #23]
  58:	12001c42 	and	w2, w2, #0xff
  5c:	54000209 	b.ls	9c <main+0x9c>  // b.plast
  60:	11015c42 	add	w2, w2, #0x57
  64:	12001c42 	and	w2, w2, #0xff
  68:	39005fe2 	strb	w2, [sp, #23]
  6c:	93407c04 	sxtw	x4, w0
  70:	51000400 	sub	w0, w0, #0x1
  74:	39405fe2 	ldrb	w2, [sp, #23]
  78:	12001c42 	and	w2, w2, #0xff
  7c:	38246822 	strb	w2, [x1, x4]
  80:	7100041f 	cmp	w0, #0x1
  84:	54fffdc1 	b.ne	3c <main+0x3c>  // b.any
  88:	d2800282 	mov	x2, #0x14                  	// #20
  8c:	94000000 	bl	0 <write>
  90:	52800000 	mov	w0, #0x0                   	// #0
  94:	a8c37bfd 	ldp	x29, x30, [sp], #48
  98:	d65f03c0 	ret
  9c:	1100c042 	add	w2, w2, #0x30
  a0:	17fffff1 	b	64 <main+0x64>
