
exit:     file format elf64-littleaarch64


Disassembly of section .text:

00000000004000e8 <_start>:
  4000e8:	d503201f 	nop
  4000ec:	d2800540 	mov	x0, #0x2a                  	// #42
  4000f0:	d2800ba8 	mov	x8, #0x5d                  	// #93
  4000f4:	d4000001 	svc	#0x0
  4000f8:	d503201f 	nop
  4000fc:	d503201f 	nop
  400100:	d503201f 	nop
  400104:	d503201f 	nop
  400108:	d503201f 	nop
  40010c:	d503201f 	nop
  400110:	d503201f 	nop
  400114:	d503201f 	nop
  400118:	d503201f 	nop
  40011c:	d503201f 	nop
  400120:	d503201f 	nop
  400124:	d503201f 	nop
  400128:	d503201f 	nop
  40012c:	d503201f 	nop
  400130:	d503201f 	nop
  400134:	d503201f 	nop
  400138:	d503201f 	nop
  40013c:	d503201f 	nop
  400140:	d503201f 	nop
  400144:	d503201f 	nop
  400148:	d503201f 	nop
  40014c:	d503201f 	nop
  400150:	d503201f 	nop
  400154:	d503201f 	nop
  400158:	d503201f 	nop
  40015c:	d503201f 	nop
  400160:	d503201f 	nop
  400164:	d503201f 	nop
  400168:	d503201f 	nop
  40016c:	d503201f 	nop
  400170:	d503201f 	nop
  400174:	d503201f 	nop
  400178:	d503201f 	nop
  40017c:	d503201f 	nop
  400180:	d503201f 	nop
  400184:	d503201f 	nop
  400188:	d503201f 	nop
  40018c:	d503201f 	nop
  400190:	d503201f 	nop
  400194:	d503201f 	nop
  400198:	d503201f 	nop
  40019c:	d503201f 	nop
  4001a0:	d503201f 	nop
  4001a4:	d503201f 	nop
  4001a8:	d503201f 	nop
  4001ac:	d503201f 	nop
  4001b0:	d503201f 	nop
  4001b4:	d503201f 	nop
  4001b8:	d503201f 	nop
  4001bc:	d503201f 	nop
  4001c0:	d503201f 	nop
  4001c4:	d503201f 	nop
  4001c8:	d503201f 	nop
  4001cc:	d503201f 	nop
  4001d0:	d503201f 	nop
  4001d4:	d503201f 	nop
  4001d8:	d503201f 	nop
  4001dc:	d503201f 	nop
  4001e0:	d503201f 	nop
  4001e4:	d503201f 	nop
  4001e8:	d503201f 	nop
  4001ec:	d503201f 	nop
  4001f0:	d503201f 	nop
  4001f4:	d503201f 	nop
  4001f8:	d503201f 	nop
  4001fc:	d503201f 	nop
  400200:	d503201f 	nop
  400204:	d503201f 	nop
  400208:	d503201f 	nop
  40020c:	d503201f 	nop
  400210:	d503201f 	nop
  400214:	d503201f 	nop
  400218:	d503201f 	nop
  40021c:	d503201f 	nop
  400220:	d503201f 	nop
  400224:	d503201f 	nop
  400228:	d503201f 	nop
  40022c:	d503201f 	nop
  400230:	d503201f 	nop
  400234:	d503201f 	nop
  400238:	d503201f 	nop
  40023c:	d503201f 	nop
  400240:	d503201f 	nop
  400244:	d503201f 	nop
  400248:	d503201f 	nop
  40024c:	d503201f 	nop
  400250:	d503201f 	nop
  400254:	d503201f 	nop
  400258:	d503201f 	nop
  40025c:	d503201f 	nop
  400260:	d503201f 	nop
  400264:	d503201f 	nop
  400268:	d503201f 	nop
  40026c:	d503201f 	nop
  400270:	d503201f 	nop
  400274:	d503201f 	nop
  400278:	d503201f 	nop
  40027c:	d503201f 	nop
  400280:	d503201f 	nop
  400284:	d503201f 	nop
  400288:	d503201f 	nop
  40028c:	d503201f 	nop
  400290:	d503201f 	nop
  400294:	d503201f 	nop
  400298:	d503201f 	nop
  40029c:	d503201f 	nop
  4002a0:	d503201f 	nop
  4002a4:	d503201f 	nop
  4002a8:	d503201f 	nop
  4002ac:	d503201f 	nop
  4002b0:	d503201f 	nop
  4002b4:	d503201f 	nop
  4002b8:	d503201f 	nop
  4002bc:	d503201f 	nop
  4002c0:	d503201f 	nop
  4002c4:	d503201f 	nop
  4002c8:	d503201f 	nop
  4002cc:	d503201f 	nop
  4002d0:	d503201f 	nop
  4002d4:	d503201f 	nop
  4002d8:	d503201f 	nop
  4002dc:	d503201f 	nop
  4002e0:	d503201f 	nop
  4002e4:	d503201f 	nop
  4002e8:	d503201f 	nop
  4002ec:	d65f03c0 	ret
